target datalayout = "e-m:e-p270:32:32-p271:32:32-p272:64:64-i64:64-i128:128-f80:128-n8:16:32:64-S128"
target triple = "x86_64-pc-linux-gnu"

%"class.std::__cxx11::basic_string" = type { %"struct.std::__cxx11::basic_string<char>::_Alloc_hider", i64, %union.anon }
%"struct.std::__cxx11::basic_string<char>::_Alloc_hider" = type { ptr }
%union.anon = type { i64, [8 x i8] }
%"class.gmx::IdentityFormatter" = type { i8 }
%"class.gmx::IHelpTopic" = type { ptr }
%struct.gmx_ana_selmethod_t = type { ptr, i32, i32, i32, ptr, ptr, ptr, ptr, ptr, ptr, ptr, ptr, ptr, %struct.gmx_ana_selmethod_help_t }
%struct.gmx_ana_selmethod_help_t = type { ptr, ptr, i32, ptr }
%"class.gmx::(anonymous namespace)::KeywordDetailsHelpTopic" = type { %"class.gmx::AbstractSimpleHelpTopic", %"class.std::__cxx11::basic_string", ptr }
%"class.gmx::AbstractSimpleHelpTopic" = type { %"class.gmx::IHelpTopic" }

@.str = private unnamed_addr constant [2 x i8] c"\0A\00", align 1

; Function Attrs: mustprogress uwtable
define linkonce_odr void @_ZN3gmx11joinStringsIPKPKcEENSt7__cxx1112basic_stringIcSt11char_traitsIcESaIcEEET_SB_S2_(ptr dead_on_unwind noalias writable sret(%"class.std::__cxx11::basic_string") align 8 %0, ptr noundef %1, ptr noundef %2, ptr noundef %3) #0 comdat {
  %5 = alloca ptr, align 8
  %6 = alloca ptr, align 8
  %7 = alloca ptr, align 8
  %8 = alloca ptr, align 8
  %9 = alloca %"class.gmx::IdentityFormatter", align 1
  store ptr %0, ptr %5, align 8
  store ptr %1, ptr %6, align 8
  store ptr %2, ptr %7, align 8
  store ptr %3, ptr %8, align 8
  %10 = load ptr, ptr %6, align 8
  %11 = load ptr, ptr %7, align 8
  %12 = load ptr, ptr %8, align 8
  call void @_ZN3gmx13formatAndJoinIPKPKcNS_17IdentityFormatterEEENSt7__cxx1112basic_stringIcSt11char_traitsIcESaIcEEET_SC_S2_RKT0_(ptr dead_on_unwind writable sret(%"class.std::__cxx11::basic_string") align 8 %0, ptr noundef %10, ptr noundef %11, ptr noundef %12, ptr noundef nonnull align 1 dereferenceable(1) %9)
  ret void
}

; Function Attrs: mustprogress uwtable
define internal void @_ZNK3gmx12_GLOBAL__N_123KeywordDetailsHelpTopic8helpTextB5cxx11Ev(ptr dead_on_unwind noalias writable sret(%"class.std::__cxx11::basic_string") align 8 %0, ptr noundef nonnull align 8 dereferenceable(48) %1) unnamed_addr #0 align 2 {
  %3 = alloca ptr, align 8
  %4 = alloca ptr, align 8
  store ptr %0, ptr %3, align 8
  store ptr %1, ptr %4, align 8
  %5 = load ptr, ptr %4, align 8
  %6 = getelementptr inbounds %"class.gmx::(anonymous namespace)::KeywordDetailsHelpTopic", ptr %5, i32 0, i32 2
  %7 = load ptr, ptr %6, align 8
  %8 = getelementptr inbounds %struct.gmx_ana_selmethod_t, ptr %7, i32 0, i32 13
  %9 = getelementptr inbounds %struct.gmx_ana_selmethod_help_t, ptr %8, i32 0, i32 3
  %10 = load ptr, ptr %9, align 8
  %11 = getelementptr inbounds %"class.gmx::(anonymous namespace)::KeywordDetailsHelpTopic", ptr %5, i32 0, i32 2
  %12 = load ptr, ptr %11, align 8
  %13 = getelementptr inbounds %struct.gmx_ana_selmethod_t, ptr %12, i32 0, i32 13
  %14 = getelementptr inbounds %struct.gmx_ana_selmethod_help_t, ptr %13, i32 0, i32 3
  %15 = load ptr, ptr %14, align 8
  %16 = getelementptr inbounds %"class.gmx::(anonymous namespace)::KeywordDetailsHelpTopic", ptr %5, i32 0, i32 2
  %17 = load ptr, ptr %16, align 8
  %18 = getelementptr inbounds %struct.gmx_ana_selmethod_t, ptr %17, i32 0, i32 13
  %19 = getelementptr inbounds %struct.gmx_ana_selmethod_help_t, ptr %18, i32 0, i32 2
  %20 = load i32, ptr %19, align 8
  %21 = sext i32 %20 to i64
  %22 = getelementptr inbounds ptr, ptr %15, i64 %21
  call void @_ZN3gmx11joinStringsIPKPKcEENSt7__cxx1112basic_stringIcSt11char_traitsIcESaIcEEET_SB_S2_(ptr dead_on_unwind writable sret(%"class.std::__cxx11::basic_string") align 8 %0, ptr noundef %10, ptr noundef %22, ptr noundef @.str)
  ret void
}