; Function Attrs: mustprogress uwtable
define internal void @_ZNK3gmx12_GLOBAL__N_123KeywordDetailsHelpTopic8helpTextB5cxx11Ev(ptr dead_on_unwind noalias writable sret(%"class.std::__cxx11::basic_string") align 8 %0, ptr nocapture noundef nonnull readonly align 8 dereferenceable(48) %1) unnamed_addr #0 align 2 {
  %3 = alloca %"class.gmx::IdentityFormatter", align 1
  %4 = getelementptr inbounds i8, ptr %1, i64 40
  %5 = load ptr, ptr %4, align 8
  %6 = getelementptr inbounds i8, ptr %5, i64 120
  %7 = load ptr, ptr %6, align 8
  %8 = getelementptr inbounds i8, ptr %5, i64 112
  %9 = load i32, ptr %8, align 8
  %10 = sext i32 %9 to i64
  %11 = getelementptr inbounds ptr, ptr %7, i64 %10
  call void @llvm.lifetime.start.p0(i64 1, ptr nonnull %3)
  call void @_ZN3gmx13formatAndJoinIPKPKcNS_17IdentityFormatterEEENSt7__cxx1112basic_stringIcSt11char_traitsIcESaIcEEET_SC_S2_RKT0_(ptr dead_on_unwind writable sret(%"class.std::__cxx11::basic_string") align 8 %0, ptr noundef %7, ptr noundef %11, ptr noundef nonnull @.str, ptr noundef nonnull align 1 dereferenceable(1) %3)
  call void @llvm.lifetime.end.p0(i64 1, ptr nonnull %3)
  ret void
}